Certificate:
    Data:
        Version: 3 (0x2)
        Serial Number:
            4e:9c:5d:0e:49:d2:a2:32:6f:0b:25:02:a3:c7:f3:93:b1:b4:3c:07
        Signature Algorithm: sha256WithRSAEncryption
        Issuer: C = JP, ST = Shimane, L = Matz-e city, O = Ruby Core Team, CN = Ruby Test CA, emailAddress = security@ruby-lang.org
        Validity
            Not Before: Jan  1 11:46:26 2024 GMT
            Not After : Dec 30 11:46:26 2028 GMT
        Subject: C = JP, ST = Shimane, L = Matz-e city, O = Ruby Core Team, CN = Ruby Test CA, emailAddress = security@ruby-lang.org
        Subject Public Key Info:
            Public Key Algorithm: rsaEncryption
                Public-Key: (2048 bit)
                Modulus:
                    00:e8:da:9c:01:2e:2b:10:ec:49:cd:5e:07:13:07:
                    9c:70:9e:c6:74:bc:13:c2:e1:6f:c6:82:fd:e3:48:
                    e0:2c:a5:68:c7:9e:42:de:60:54:65:e6:6a:14:57:
                    7a:30:d0:cc:b5:b6:d9:c3:d2:df:c9:25:97:54:67:
                    cf:f6:be:5e:cb:8b:ee:03:c5:e1:e2:f9:e7:f7:d1:
                    0c:47:f0:b8:da:33:5a:ad:41:ad:e7:b5:a2:7b:b7:
                    bf:30:da:60:f8:e3:54:a2:bc:3a:fd:1b:74:d9:dc:
                    74:42:e9:29:be:df:ac:b4:4f:eb:32:f4:06:f1:e1:
                    8c:4b:a8:8b:fb:29:e7:b1:bf:1d:01:ee:73:0f:f9:
                    40:dc:d5:15:79:d9:c6:73:d0:c0:dd:cb:e4:da:19:
                    47:80:c6:14:04:72:fd:9a:7c:8f:11:82:76:49:04:
                    79:cc:f2:5c:31:22:95:13:3e:5d:40:a6:4d:e0:a3:
                    02:26:7d:52:3b:bb:ed:65:a1:0f:ed:6b:b0:3c:d4:
                    de:61:15:5e:d3:dd:68:09:9f:4a:57:a5:c2:a9:6d:
                    86:92:c5:f4:a4:d4:b7:13:3b:52:63:24:05:e2:cc:
                    e3:8a:3c:d4:35:34:2b:10:bb:58:72:e7:e1:8d:1d:
                    74:8c:61:16:20:3d:d0:1c:4e:8f:6e:fd:fe:64:10:
                    4f:41
                Exponent: 65537 (0x10001)
        X509v3 extensions:
            X509v3 Subject Key Identifier: 
                ED:28:C2:7E:AB:4B:C8:E8:FE:55:6D:66:95:31:1C:2D:60:F9:02:36
            X509v3 Authority Key Identifier: 
                ED:28:C2:7E:AB:4B:C8:E8:FE:55:6D:66:95:31:1C:2D:60:F9:02:36
            X509v3 Basic Constraints: critical
                CA:TRUE
    Signature Algorithm: sha256WithRSAEncryption
    Signature Value:
        9c:48:27:08:4a:e6:ca:d4:23:be:a6:44:23:63:5b:e8:e2:d4:
        8f:47:08:df:eb:a4:17:7c:9a:cb:20:3d:c9:6a:4e:69:e2:4f:
        cb:3f:29:55:b6:cd:16:f3:7d:d9:42:19:90:05:01:49:2d:1d:
        e6:41:82:e7:2a:65:2b:a6:9c:67:06:00:41:27:ac:53:16:43:
        14:2f:9b:75:72:9a:d3:75:e9:b4:7a:01:df:86:bf:d0:1d:d5:
        ba:b1:f7:82:af:af:cd:43:34:f2:b0:23:d3:c6:c6:5f:d4:f8:
        88:f7:fb:b5:b1:42:ee:41:df:1a:10:7b:6f:d2:8c:67:21:6b:
        45:cf:bb:0a:dd:f7:69:47:e8:94:c0:00:20:2a:c3:fa:d6:e8:
        9b:4c:e6:91:57:ed:7e:96:3a:20:19:7e:a2:ec:c4:b7:57:ae:
        3e:7e:d7:60:c1:af:c0:e8:af:6d:55:d3:7d:91:88:fb:ec:3c:
        aa:bb:67:14:39:f1:d7:ef:cb:3f:be:61:b1:0f:ab:31:8e:42:
        a3:30:13:8c:ce:90:9e:d4:ea:22:17:32:74:c1:72:de:bc:7d:
        92:50:b6:ed:60:9e:76:e7:6e:4b:16:a6:1a:8b:49:72:f5:33:
        e5:e2:3a:56:f3:67:80:bf:72:23:47:d9:e0:0d:83:41:55:95:
        d2:fc:a9:d5
-----BEGIN CERTIFICATE-----
MIID+zCCAuOgAwIBAgIUTpxdDknSojJvCyUCo8fzk7G0PAcwDQYJKoZIhvcNAQEL
BQAwgYwxCzAJBgNVBAYTAkpQMRAwDgYDVQQIDAdTaGltYW5lMRQwEgYDVQQHDAtN
YXR6LWUgY2l0eTEXMBUGA1UECgwOUnVieSBDb3JlIFRlYW0xFTATBgNVBAMMDFJ1
YnkgVGVzdCBDQTElMCMGCSqGSIb3DQEJARYWc2VjdXJpdHlAcnVieS1sYW5nLm9y
ZzAeFw0yNDAxMDExMTQ2MjZaFw0yODEyMzAxMTQ2MjZaMIGMMQswCQYDVQQGEwJK
UDEQMA4GA1UECAwHU2hpbWFuZTEUMBIGA1UEBwwLTWF0ei1lIGNpdHkxFzAVBgNV
BAoMDlJ1YnkgQ29yZSBUZWFtMRUwEwYDVQQDDAxSdWJ5IFRlc3QgQ0ExJTAjBgkq
hkiG9w0BCQEWFnNlY3VyaXR5QHJ1YnktbGFuZy5vcmcwggEiMA0GCSqGSIb3DQEB
AQUAA4IBDwAwggEKAoIBAQDo2pwBLisQ7EnNXgcTB5xwnsZ0vBPC4W/Ggv3jSOAs
pWjHnkLeYFRl5moUV3ow0My1ttnD0t/JJZdUZ8/2vl7Li+4DxeHi+ef30QxH8Lja
M1qtQa3ntaJ7t78w2mD441SivDr9G3TZ3HRC6Sm+36y0T+sy9Abx4YxLqIv7Keex
vx0B7nMP+UDc1RV52cZz0MDdy+TaGUeAxhQEcv2afI8RgnZJBHnM8lwxIpUTPl1A
pk3gowImfVI7u+1loQ/ta7A81N5hFV7T3WgJn0pXpcKpbYaSxfSk1LcTO1JjJAXi
zOOKPNQ1NCsQu1hy5+GNHXSMYRYgPdAcTo9u/f5kEE9BAgMBAAGjUzBRMB0GA1Ud
DgQWBBTtKMJ+q0vI6P5VbWaVMRwtYPkCNjAfBgNVHSMEGDAWgBTtKMJ+q0vI6P5V
bWaVMRwtYPkCNjAPBgNVHRMBAf8EBTADAQH/MA0GCSqGSIb3DQEBCwUAA4IBAQCc
SCcISubK1CO+pkQjY1vo4tSPRwjf66QXfJrLID3Jak5p4k/LPylVts0W833ZQhmQ
BQFJLR3mQYLnKmUrppxnBgBBJ6xTFkMUL5t1cprTdem0egHfhr/QHdW6sfeCr6/N
QzTysCPTxsZf1PiI9/u1sULuQd8aEHtv0oxnIWtFz7sK3fdpR+iUwAAgKsP61uib
TOaRV+1+ljogGX6i7MS3V64+ftdgwa/A6K9tVdN9kYj77Dyqu2cUOfHX78s/vmGx
D6sxjkKjMBOMzpCe1OoiFzJ0wXLevH2SULbtYJ52525LFqYai0ly9TPl4jpW82eA
v3IjR9ngDYNBVZXS/KnV
-----END CERTIFICATE-----
