Certificate:
    Data:
        Version: 1 (0x0)
        Serial Number: 0 (0x0)
        Signature Algorithm: sha256WithRSAEncryption
        Issuer: C = JP, ST = Shimane, L = Matz-e city, O = Ruby Core Team, CN = Ruby Test CA, emailAddress = security@ruby-lang.org
        Validity
            Not Before: Jan  1 11:46:26 2024 GMT
            Not After : Dec 30 11:46:26 2028 GMT
        Subject: C = JP, ST = Shimane, O = Ruby Core Team, OU = Ruby Test, CN = localhost
        Subject Public Key Info:
            Public Key Algorithm: rsaEncryption
                Public-Key: (2048 bit)
                Modulus:
                    00:e8:da:9c:01:2e:2b:10:ec:49:cd:5e:07:13:07:
                    9c:70:9e:c6:74:bc:13:c2:e1:6f:c6:82:fd:e3:48:
                    e0:2c:a5:68:c7:9e:42:de:60:54:65:e6:6a:14:57:
                    7a:30:d0:cc:b5:b6:d9:c3:d2:df:c9:25:97:54:67:
                    cf:f6:be:5e:cb:8b:ee:03:c5:e1:e2:f9:e7:f7:d1:
                    0c:47:f0:b8:da:33:5a:ad:41:ad:e7:b5:a2:7b:b7:
                    bf:30:da:60:f8:e3:54:a2:bc:3a:fd:1b:74:d9:dc:
                    74:42:e9:29:be:df:ac:b4:4f:eb:32:f4:06:f1:e1:
                    8c:4b:a8:8b:fb:29:e7:b1:bf:1d:01:ee:73:0f:f9:
                    40:dc:d5:15:79:d9:c6:73:d0:c0:dd:cb:e4:da:19:
                    47:80:c6:14:04:72:fd:9a:7c:8f:11:82:76:49:04:
                    79:cc:f2:5c:31:22:95:13:3e:5d:40:a6:4d:e0:a3:
                    02:26:7d:52:3b:bb:ed:65:a1:0f:ed:6b:b0:3c:d4:
                    de:61:15:5e:d3:dd:68:09:9f:4a:57:a5:c2:a9:6d:
                    86:92:c5:f4:a4:d4:b7:13:3b:52:63:24:05:e2:cc:
                    e3:8a:3c:d4:35:34:2b:10:bb:58:72:e7:e1:8d:1d:
                    74:8c:61:16:20:3d:d0:1c:4e:8f:6e:fd:fe:64:10:
                    4f:41
                Exponent: 65537 (0x10001)
    Signature Algorithm: sha256WithRSAEncryption
    Signature Value:
        69:d0:53:2c:c9:1e:a2:e1:5b:b6:94:98:38:51:fa:be:0e:46:
        c2:a8:0a:48:04:0b:a0:14:6e:a6:d1:7e:ae:12:ee:44:98:42:
        d8:57:f0:a7:1d:49:08:ca:00:46:1e:7f:58:43:57:cd:f7:e3:
        97:11:e1:3a:23:3b:14:dd:d7:89:6d:29:40:e2:ba:14:7a:07:
        cc:23:0d:86:96:33:7e:48:65:f0:57:04:07:4c:06:03:62:48:
        e1:4c:4d:c8:e6:d8:60:e0:2f:b8:26:b4:d1:38:fe:b0:d9:1b:
        bf:bd:9a:c6:97:36:e8:fa:d4:c6:07:c3:7d:5b:fd:87:72:ac:
        8a:63:72:7f:44:94:9f:9d:d7:e8:f7:3f:76:65:bf:c2:fa:27:
        34:43:50:10:c0:12:21:53:4b:11:57:5d:81:a0:50:5b:20:9d:
        cc:e5:c3:0e:31:f1:36:4c:63:d5:1a:0a:44:07:8b:10:bf:74:
        db:08:f2:9f:e8:7d:a1:a4:90:32:04:e6:54:f5:d0:ca:92:34:
        e6:85:a9:b1:53:91:17:f3:ed:ee:80:0e:90:7e:03:d3:16:70:
        1e:83:00:5a:22:ac:66:fe:76:14:82:7f:df:2e:8d:6c:76:4c:
        0b:9b:78:78:5d:3e:ef:71:dc:6a:6d:94:6f:28:72:1a:f8:a7:
        30:15:69:ac
-----BEGIN CERTIFICATE-----
MIIDYTCCAkkCAQAwDQYJKoZIhvcNAQELBQAwgYwxCzAJBgNVBAYTAkpQMRAwDgYD
VQQIDAdTaGltYW5lMRQwEgYDVQQHDAtNYXR6LWUgY2l0eTEXMBUGA1UECgwOUnVi
eSBDb3JlIFRlYW0xFTATBgNVBAMMDFJ1YnkgVGVzdCBDQTElMCMGCSqGSIb3DQEJ
ARYWc2VjdXJpdHlAcnVieS1sYW5nLm9yZzAeFw0yNDAxMDExMTQ2MjZaFw0yODEy
MzAxMTQ2MjZaMGAxCzAJBgNVBAYTAkpQMRAwDgYDVQQIDAdTaGltYW5lMRcwFQYD
VQQKDA5SdWJ5IENvcmUgVGVhbTESMBAGA1UECwwJUnVieSBUZXN0MRIwEAYDVQQD
DAlsb2NhbGhvc3QwggEiMA0GCSqGSIb3DQEBAQUAA4IBDwAwggEKAoIBAQDo2pwB
LisQ7EnNXgcTB5xwnsZ0vBPC4W/Ggv3jSOAspWjHnkLeYFRl5moUV3ow0My1ttnD
0t/JJZdUZ8/2vl7Li+4DxeHi+ef30QxH8LjaM1qtQa3ntaJ7t78w2mD441SivDr9
G3TZ3HRC6Sm+36y0T+sy9Abx4YxLqIv7Keexvx0B7nMP+UDc1RV52cZz0MDdy+Ta
GUeAxhQEcv2afI8RgnZJBHnM8lwxIpUTPl1Apk3gowImfVI7u+1loQ/ta7A81N5h
FV7T3WgJn0pXpcKpbYaSxfSk1LcTO1JjJAXizOOKPNQ1NCsQu1hy5+GNHXSMYRYg
PdAcTo9u/f5kEE9BAgMBAAEwDQYJKoZIhvcNAQELBQADggEBAGnQUyzJHqLhW7aU
mDhR+r4ORsKoCkgEC6AUbqbRfq4S7kSYQthX8KcdSQjKAEYef1hDV83345cR4Toj
OxTd14ltKUDiuhR6B8wjDYaWM35IZfBXBAdMBgNiSOFMTcjm2GDgL7gmtNE4/rDZ
G7+9msaXNuj61MYHw31b/YdyrIpjcn9ElJ+d1+j3P3Zlv8L6JzRDUBDAEiFTSxFX
XYGgUFsgnczlww4x8TZMY9UaCkQHixC/dNsI8p/ofaGkkDIE5lT10MqSNOaFqbFT
kRfz7e6ADpB+A9MWcB6DAFoirGb+dhSCf98ujWx2TAubeHhdPu9x3GptlG8ochr4
pzAVaaw=
-----END CERTIFICATE-----
